; Function Attrs: mustprogress uwtable
define internal void @"_ZNSt17_Function_handlerIFvvEZN5sim_t17interactive_untilERKNSt7__cxx1112basic_stringIcSt11char_traitsIcESaIcEEERKSt6vectorIS7_SaIS7_EEbE3$_0E9_M_invokeERKSt9_Any_data"(ptr noundef nonnull readonly align 8 captures(none) dereferenceable(16) %0) #7 align 2 {
  %.val = load ptr, ptr %0, align 8, !tbaa !410
  %2 = load ptr, ptr %.val, align 8, !tbaa !428
  %3 = getelementptr inbounds nuw i8, ptr %.val, i64 8
  %4 = getelementptr inbounds nuw i8, ptr %.val, i64 40
  %5 = getelementptr inbounds nuw i8, ptr %.val, i64 64
  %6 = load i8, ptr %5, align 8, !tbaa !430, !range !33, !noundef !34
  %7 = trunc nuw i8 %6 to i1
  tail call void @_ZN5sim_t17interactive_untilERKNSt7__cxx1112basic_stringIcSt11char_traitsIcESaIcEEERKSt6vectorIS5_SaIS5_EEb(ptr noundef nonnull align 8 dereferenceable(2800) %2, ptr noundef nonnull readonly align 8 dereferenceable(32) %3, ptr noundef nonnull readonly align 8 dereferenceable(24) %4, i1 noundef zeroext %7)
  ret void
}